; ModuleID = '10/2308.c'
source_filename = "10/2308.c"
target datalayout = "e-m:e-p270:32:32-p271:32:32-p272:64:64-i64:64-f80:128-n8:16:32:64-S128"
target triple = "x86_64-pc-linux-gnu"

@.str = private unnamed_addr constant [3 x i8] c"%d\00", align 1

; Function Attrs: noinline nounwind uwtable
define dso_local i32 @abc(i8* %0, i8* %1) #0 {
  %3 = alloca i8*, align 8
  %4 = alloca i8*, align 8
  store i8* %0, i8** %3, align 8
  store i8* %1, i8** %4, align 8
  %5 = load i8*, i8** %4, align 8
  %6 = bitcast i8* %5 to i32*
  %7 = load i32, i32* %6, align 4
  %8 = load i8*, i8** %3, align 8
  %9 = bitcast i8* %8 to i32*
  %10 = load i32, i32* %9, align 4
  %11 = sub nsw i32 %7, %10
  ret i32 %11
}

; Function Attrs: noinline nounwind uwtable
define dso_local i32 @main() #0 {
  %1 = alloca i32, align 4
  %2 = alloca i32, align 4
  %3 = alloca [2 x [25 x i32]], align 16
  %4 = alloca i32, align 4
  %5 = alloca i32, align 4
  %6 = alloca i32, align 4
  %7 = alloca i32, align 4
  store i32 0, i32* %1, align 4
  %8 = bitcast [2 x [25 x i32]]* %3 to i8*
  call void @llvm.memset.p0i8.i64(i8* align 16 %8, i8 0, i64 200, i1 false)
  %9 = call i32 (i8*, ...) @__isoc99_scanf(i8* getelementptr inbounds ([3 x i8], [3 x i8]* @.str, i64 0, i64 0), i32* %2)
  %10 = load i32, i32* %2, align 4
  %11 = sub nsw i32 %10, 1
  store i32 %11, i32* %4, align 4
  br label %12

12:                                               ; preds = %21, %0
  %13 = load i32, i32* %4, align 4
  %14 = icmp sge i32 %13, 0
  br i1 %14, label %15, label %24

15:                                               ; preds = %12
  %16 = getelementptr inbounds [2 x [25 x i32]], [2 x [25 x i32]]* %3, i64 0, i64 0
  %17 = load i32, i32* %4, align 4
  %18 = sext i32 %17 to i64
  %19 = getelementptr inbounds [25 x i32], [25 x i32]* %16, i64 0, i64 %18
  %20 = call i32 (i8*, ...) @__isoc99_scanf(i8* getelementptr inbounds ([3 x i8], [3 x i8]* @.str, i64 0, i64 0), i32* %19)
  br label %21

21:                                               ; preds = %15
  %22 = load i32, i32* %4, align 4
  %23 = add nsw i32 %22, -1
  store i32 %23, i32* %4, align 4
  br label %12

24:                                               ; preds = %12
  %25 = getelementptr inbounds [2 x [25 x i32]], [2 x [25 x i32]]* %3, i64 0, i64 1
  %26 = getelementptr inbounds [25 x i32], [25 x i32]* %25, i64 0, i64 0
  store i32 1, i32* %26, align 4
  store i32 1, i32* %4, align 4
  br label %27

27:                                               ; preds = %80, %24
  %28 = load i32, i32* %4, align 4
  %29 = load i32, i32* %2, align 4
  %30 = icmp slt i32 %28, %29
  br i1 %30, label %31, label %83

31:                                               ; preds = %27
  %32 = getelementptr inbounds [2 x [25 x i32]], [2 x [25 x i32]]* %3, i64 0, i64 1
  %33 = load i32, i32* %4, align 4
  %34 = sext i32 %33 to i64
  %35 = getelementptr inbounds [25 x i32], [25 x i32]* %32, i64 0, i64 %34
  store i32 1, i32* %35, align 4
  store i32 0, i32* %5, align 4
  br label %36

36:                                               ; preds = %76, %31
  %37 = load i32, i32* %5, align 4
  %38 = load i32, i32* %4, align 4
  %39 = icmp slt i32 %37, %38
  br i1 %39, label %40, label %79

40:                                               ; preds = %36
  %41 = getelementptr inbounds [2 x [25 x i32]], [2 x [25 x i32]]* %3, i64 0, i64 0
  %42 = load i32, i32* %4, align 4
  %43 = sext i32 %42 to i64
  %44 = getelementptr inbounds [25 x i32], [25 x i32]* %41, i64 0, i64 %43
  %45 = load i32, i32* %44, align 4
  %46 = getelementptr inbounds [2 x [25 x i32]], [2 x [25 x i32]]* %3, i64 0, i64 0
  %47 = load i32, i32* %5, align 4
  %48 = sext i32 %47 to i64
  %49 = getelementptr inbounds [25 x i32], [25 x i32]* %46, i64 0, i64 %48
  %50 = load i32, i32* %49, align 4
  %51 = icmp sge i32 %45, %50
  br i1 %51, label %52, label %75

52:                                               ; preds = %40
  %53 = getelementptr inbounds [2 x [25 x i32]], [2 x [25 x i32]]* %3, i64 0, i64 1
  %54 = load i32, i32* %4, align 4
  %55 = sext i32 %54 to i64
  %56 = getelementptr inbounds [25 x i32], [25 x i32]* %53, i64 0, i64 %55
  %57 = load i32, i32* %56, align 4
  %58 = getelementptr inbounds [2 x [25 x i32]], [2 x [25 x i32]]* %3, i64 0, i64 1
  %59 = load i32, i32* %5, align 4
  %60 = sext i32 %59 to i64
  %61 = getelementptr inbounds [25 x i32], [25 x i32]* %58, i64 0, i64 %60
  %62 = load i32, i32* %61, align 4
  %63 = icmp sle i32 %57, %62
  br i1 %63, label %64, label %75

64:                                               ; preds = %52
  %65 = getelementptr inbounds [2 x [25 x i32]], [2 x [25 x i32]]* %3, i64 0, i64 1
  %66 = load i32, i32* %5, align 4
  %67 = sext i32 %66 to i64
  %68 = getelementptr inbounds [25 x i32], [25 x i32]* %65, i64 0, i64 %67
  %69 = load i32, i32* %68, align 4
  %70 = add nsw i32 %69, 1
  %71 = getelementptr inbounds [2 x [25 x i32]], [2 x [25 x i32]]* %3, i64 0, i64 1
  %72 = load i32, i32* %4, align 4
  %73 = sext i32 %72 to i64
  %74 = getelementptr inbounds [25 x i32], [25 x i32]* %71, i64 0, i64 %73
  store i32 %70, i32* %74, align 4
  br label %75

75:                                               ; preds = %64, %52, %40
  br label %76

76:                                               ; preds = %75
  %77 = load i32, i32* %5, align 4
  %78 = add nsw i32 %77, 1
  store i32 %78, i32* %5, align 4
  br label %36

79:                                               ; preds = %36
  br label %80

80:                                               ; preds = %79
  %81 = load i32, i32* %4, align 4
  %82 = add nsw i32 %81, 1
  store i32 %82, i32* %4, align 4
  br label %27

83:                                               ; preds = %27
  %84 = getelementptr inbounds [2 x [25 x i32]], [2 x [25 x i32]]* %3, i64 0, i64 1
  %85 = getelementptr inbounds [25 x i32], [25 x i32]* %84, i64 0, i64 0
  %86 = bitcast i32* %85 to i8*
  %87 = load i32, i32* %2, align 4
  %88 = sext i32 %87 to i64
  call void @qsort(i8* %86, i64 %88, i64 4, i32 (i8*, i8*)* @abc)
  %89 = getelementptr inbounds [2 x [25 x i32]], [2 x [25 x i32]]* %3, i64 0, i64 1
  %90 = getelementptr inbounds [25 x i32], [25 x i32]* %89, i64 0, i64 0
  %91 = load i32, i32* %90, align 4
  %92 = call i32 (i8*, ...) @printf(i8* getelementptr inbounds ([3 x i8], [3 x i8]* @.str, i64 0, i64 0), i32 %91)
  %93 = load i32, i32* %1, align 4
  ret i32 %93
}

; Function Attrs: argmemonly nounwind willreturn
declare void @llvm.memset.p0i8.i64(i8* nocapture writeonly, i8, i64, i1 immarg) #1

declare dso_local i32 @__isoc99_scanf(i8*, ...) #2

declare dso_local void @qsort(i8*, i64, i64, i32 (i8*, i8*)*) #2

declare dso_local i32 @printf(i8*, ...) #2


!llvm.module.flags = !{!0}
!llvm.ident = !{!1}

!0 = !{i32 1, !"wchar_size", i32 4}
!1 = !{!"clang version 10.0.0-4ubuntu1 "}
